; ModuleID = '55/1569.cpp'
source_filename = "55/1569.cpp"
target datalayout = "e-m:e-p270:32:32-p271:32:32-p272:64:64-i64:64-f80:128-n8:16:32:64-S128"
target triple = "x86_64-pc-linux-gnu"

%"class.std::ios_base::Init" = type { i8 }
%"class.std::basic_istream" = type { i32 (...)**, i64, %"class.std::basic_ios" }
%"class.std::basic_ios" = type { %"class.std::ios_base", %"class.std::basic_ostream"*, i8, i8, %"class.std::basic_streambuf"*, %"class.std::ctype"*, %"class.std::num_put"*, %"class.std::num_get"* }
%"class.std::ios_base" = type { i32 (...)**, i64, i64, i32, i32, i32, %"struct.std::ios_base::_Callback_list"*, %"struct.std::ios_base::_Words", [8 x %"struct.std::ios_base::_Words"], i32, %"struct.std::ios_base::_Words"*, %"class.std::locale" }
%"struct.std::ios_base::_Callback_list" = type { %"struct.std::ios_base::_Callback_list"*, void (i32, %"class.std::ios_base"*, i32)*, i32, i32 }
%"struct.std::ios_base::_Words" = type { i8*, i64 }
%"class.std::locale" = type { %"class.std::locale::_Impl"* }
%"class.std::locale::_Impl" = type { i32, %"class.std::locale::facet"**, i64, %"class.std::locale::facet"**, i8** }
%"class.std::locale::facet" = type <{ i32 (...)**, i32, [4 x i8] }>
%"class.std::basic_ostream" = type { i32 (...)**, %"class.std::basic_ios" }
%"class.std::basic_streambuf" = type { i32 (...)**, i8*, i8*, i8*, i8*, i8*, i8*, %"class.std::locale" }
%"class.std::ctype" = type <{ %"class.std::locale::facet.base", [4 x i8], %struct.__locale_struct*, i8, [7 x i8], i32*, i32*, i16*, i8, [256 x i8], [256 x i8], i8, [6 x i8] }>
%"class.std::locale::facet.base" = type <{ i32 (...)**, i32 }>
%struct.__locale_struct = type { [13 x %struct.__locale_data*], i16*, i32*, i32*, [13 x i8*] }
%struct.__locale_data = type opaque
%"class.std::num_put" = type { %"class.std::locale::facet.base", [4 x i8] }
%"class.std::num_get" = type { %"class.std::locale::facet.base", [4 x i8] }

@_ZStL8__ioinit = internal global %"class.std::ios_base::Init" zeroinitializer, align 1
@__dso_handle = external hidden global i8
@_ZSt3cin = external dso_local global %"class.std::basic_istream", align 8
@.str = private unnamed_addr constant [2 x i8] c"0\00", align 1
@.str.1 = private unnamed_addr constant [3 x i8] c"%c\00", align 1
@.str.2 = private unnamed_addr constant [3 x i8] c"%d\00", align 1
@llvm.global_ctors = appending global [1 x { i32, void ()*, i8* }] [{ i32, void ()*, i8* } { i32 65535, void ()* @_GLOBAL__sub_I_1569.cpp, i8* null }]

; Function Attrs: noinline uwtable
define internal void @__cxx_global_var_init() #0 section ".text.startup" {
  call void @_ZNSt8ios_base4InitC1Ev(%"class.std::ios_base::Init"* @_ZStL8__ioinit)
  %1 = call i32 @__cxa_atexit(void (i8*)* bitcast (void (%"class.std::ios_base::Init"*)* @_ZNSt8ios_base4InitD1Ev to void (i8*)*), i8* getelementptr inbounds (%"class.std::ios_base::Init", %"class.std::ios_base::Init"* @_ZStL8__ioinit, i32 0, i32 0), i8* @__dso_handle) #3
  ret void
}

declare dso_local void @_ZNSt8ios_base4InitC1Ev(%"class.std::ios_base::Init"*) unnamed_addr #1

; Function Attrs: nounwind
declare dso_local void @_ZNSt8ios_base4InitD1Ev(%"class.std::ios_base::Init"*) unnamed_addr #2

; Function Attrs: nounwind
declare dso_local i32 @__cxa_atexit(void (i8*)*, i8*, i8*) #3

; Function Attrs: noinline norecurse uwtable
define dso_local i32 @main() #4 {
  %1 = alloca i32, align 4
  %2 = alloca i32, align 4
  %3 = alloca i32, align 4
  %4 = alloca i32, align 4
  %5 = alloca i32, align 4
  %6 = alloca i32, align 4
  %7 = alloca i32, align 4
  %8 = alloca i32, align 4
  %9 = alloca [100 x i32], align 16
  %10 = alloca [100 x i8], align 16
  %11 = alloca [100 x i8], align 16
  store i32 0, i32* %1, align 4
  store i32 0, i32* %5, align 4
  store i32 0, i32* %6, align 4
  store i32 0, i32* %7, align 4
  store i32 1, i32* %8, align 4
  %12 = call dereferenceable(280) %"class.std::basic_istream"* @_ZNSirsERi(%"class.std::basic_istream"* @_ZSt3cin, i32* dereferenceable(4) %2)
  %13 = getelementptr inbounds [100 x i8], [100 x i8]* %10, i64 0, i64 0
  %14 = call dereferenceable(280) %"class.std::basic_istream"* @_ZStrsIcSt11char_traitsIcEERSt13basic_istreamIT_T0_ES6_PS3_(%"class.std::basic_istream"* dereferenceable(280) @_ZSt3cin, i8* %13)
  %15 = call dereferenceable(280) %"class.std::basic_istream"* @_ZNSirsERi(%"class.std::basic_istream"* @_ZSt3cin, i32* dereferenceable(4) %3)
  %16 = getelementptr inbounds [100 x i8], [100 x i8]* %10, i64 0, i64 0
  %17 = call i64 @strlen(i8* %16) #6
  %18 = trunc i64 %17 to i32
  store i32 %18, i32* %6, align 4
  %19 = getelementptr inbounds [100 x i8], [100 x i8]* %10, i64 0, i64 0
  %20 = load i8, i8* %19, align 16
  %21 = sext i8 %20 to i32
  %22 = icmp eq i32 %21, 48
  br i1 %22, label %23, label %25

23:                                               ; preds = %0
  %24 = call i32 (i8*, ...) @printf(i8* getelementptr inbounds ([2 x i8], [2 x i8]* @.str, i64 0, i64 0))
  br label %25

25:                                               ; preds = %23, %0
  %26 = load i32, i32* %6, align 4
  %27 = sub nsw i32 %26, 1
  store i32 %27, i32* %4, align 4
  br label %28

28:                                               ; preds = %110, %25
  %29 = load i32, i32* %4, align 4
  %30 = icmp sge i32 %29, 0
  br i1 %30, label %31, label %113

31:                                               ; preds = %28
  %32 = load i32, i32* %4, align 4
  %33 = sext i32 %32 to i64
  %34 = getelementptr inbounds [100 x i8], [100 x i8]* %10, i64 0, i64 %33
  %35 = load i8, i8* %34, align 1
  %36 = sext i8 %35 to i32
  %37 = icmp sge i32 %36, 97
  br i1 %37, label %38, label %53

38:                                               ; preds = %31
  %39 = load i32, i32* %4, align 4
  %40 = sext i32 %39 to i64
  %41 = getelementptr inbounds [100 x i8], [100 x i8]* %10, i64 0, i64 %40
  %42 = load i8, i8* %41, align 1
  %43 = sext i8 %42 to i32
  %44 = icmp sle i32 %43, 122
  br i1 %44, label %45, label %53

45:                                               ; preds = %38
  %46 = load i32, i32* %4, align 4
  %47 = sext i32 %46 to i64
  %48 = getelementptr inbounds [100 x i8], [100 x i8]* %10, i64 0, i64 %47
  %49 = load i8, i8* %48, align 1
  %50 = sext i8 %49 to i32
  %51 = sub nsw i32 %50, 87
  %52 = trunc i32 %51 to i8
  store i8 %52, i8* %48, align 1
  br label %53

53:                                               ; preds = %45, %38, %31
  %54 = load i32, i32* %4, align 4
  %55 = sext i32 %54 to i64
  %56 = getelementptr inbounds [100 x i8], [100 x i8]* %10, i64 0, i64 %55
  %57 = load i8, i8* %56, align 1
  %58 = sext i8 %57 to i32
  %59 = icmp sge i32 %58, 65
  br i1 %59, label %60, label %75

60:                                               ; preds = %53
  %61 = load i32, i32* %4, align 4
  %62 = sext i32 %61 to i64
  %63 = getelementptr inbounds [100 x i8], [100 x i8]* %10, i64 0, i64 %62
  %64 = load i8, i8* %63, align 1
  %65 = sext i8 %64 to i32
  %66 = icmp sle i32 %65, 90
  br i1 %66, label %67, label %75

67:                                               ; preds = %60
  %68 = load i32, i32* %4, align 4
  %69 = sext i32 %68 to i64
  %70 = getelementptr inbounds [100 x i8], [100 x i8]* %10, i64 0, i64 %69
  %71 = load i8, i8* %70, align 1
  %72 = sext i8 %71 to i32
  %73 = sub nsw i32 %72, 55
  %74 = trunc i32 %73 to i8
  store i8 %74, i8* %70, align 1
  br label %75

75:                                               ; preds = %67, %60, %53
  %76 = load i32, i32* %4, align 4
  %77 = sext i32 %76 to i64
  %78 = getelementptr inbounds [100 x i8], [100 x i8]* %10, i64 0, i64 %77
  %79 = load i8, i8* %78, align 1
  %80 = sext i8 %79 to i32
  %81 = icmp sge i32 %80, 48
  br i1 %81, label %82, label %97

82:                                               ; preds = %75
  %83 = load i32, i32* %4, align 4
  %84 = sext i32 %83 to i64
  %85 = getelementptr inbounds [100 x i8], [100 x i8]* %10, i64 0, i64 %84
  %86 = load i8, i8* %85, align 1
  %87 = sext i8 %86 to i32
  %88 = icmp sle i32 %87, 57
  br i1 %88, label %89, label %97

89:                                               ; preds = %82
  %90 = load i32, i32* %4, align 4
  %91 = sext i32 %90 to i64
  %92 = getelementptr inbounds [100 x i8], [100 x i8]* %10, i64 0, i64 %91
  %93 = load i8, i8* %92, align 1
  %94 = sext i8 %93 to i32
  %95 = sub nsw i32 %94, 48
  %96 = trunc i32 %95 to i8
  store i8 %96, i8* %92, align 1
  br label %97

97:                                               ; preds = %89, %82, %75
  %98 = load i32, i32* %4, align 4
  %99 = sext i32 %98 to i64
  %100 = getelementptr inbounds [100 x i8], [100 x i8]* %10, i64 0, i64 %99
  %101 = load i8, i8* %100, align 1
  %102 = sext i8 %101 to i32
  %103 = load i32, i32* %8, align 4
  %104 = mul nsw i32 %102, %103
  %105 = load i32, i32* %7, align 4
  %106 = add nsw i32 %105, %104
  store i32 %106, i32* %7, align 4
  %107 = load i32, i32* %2, align 4
  %108 = load i32, i32* %8, align 4
  %109 = mul nsw i32 %108, %107
  store i32 %109, i32* %8, align 4
  br label %110

110:                                              ; preds = %97
  %111 = load i32, i32* %4, align 4
  %112 = add nsw i32 %111, -1
  store i32 %112, i32* %4, align 4
  br label %28

113:                                              ; preds = %28
  br label %114

114:                                              ; preds = %117, %113
  %115 = load i32, i32* %7, align 4
  %116 = icmp ne i32 %115, 0
  br i1 %116, label %117, label %129

117:                                              ; preds = %114
  %118 = load i32, i32* %7, align 4
  %119 = load i32, i32* %3, align 4
  %120 = srem i32 %118, %119
  %121 = load i32, i32* %5, align 4
  %122 = sext i32 %121 to i64
  %123 = getelementptr inbounds [100 x i32], [100 x i32]* %9, i64 0, i64 %122
  store i32 %120, i32* %123, align 4
  %124 = load i32, i32* %3, align 4
  %125 = load i32, i32* %7, align 4
  %126 = sdiv i32 %125, %124
  store i32 %126, i32* %7, align 4
  %127 = load i32, i32* %5, align 4
  %128 = add nsw i32 %127, 1
  store i32 %128, i32* %5, align 4
  br label %114

129:                                              ; preds = %114
  %130 = load i32, i32* %5, align 4
  %131 = sub nsw i32 %130, 1
  store i32 %131, i32* %4, align 4
  br label %132

132:                                              ; preds = %155, %129
  %133 = load i32, i32* %4, align 4
  %134 = icmp sge i32 %133, 0
  br i1 %134, label %135, label %158

135:                                              ; preds = %132
  %136 = load i32, i32* %4, align 4
  %137 = sext i32 %136 to i64
  %138 = getelementptr inbounds [100 x i32], [100 x i32]* %9, i64 0, i64 %137
  %139 = load i32, i32* %138, align 4
  %140 = icmp sge i32 %139, 10
  br i1 %140, label %141, label %148

141:                                              ; preds = %135
  %142 = load i32, i32* %4, align 4
  %143 = sext i32 %142 to i64
  %144 = getelementptr inbounds [100 x i32], [100 x i32]* %9, i64 0, i64 %143
  %145 = load i32, i32* %144, align 4
  %146 = add nsw i32 %145, 55
  %147 = call i32 (i8*, ...) @printf(i8* getelementptr inbounds ([3 x i8], [3 x i8]* @.str.1, i64 0, i64 0), i32 %146)
  br label %154

148:                                              ; preds = %135
  %149 = load i32, i32* %4, align 4
  %150 = sext i32 %149 to i64
  %151 = getelementptr inbounds [100 x i32], [100 x i32]* %9, i64 0, i64 %150
  %152 = load i32, i32* %151, align 4
  %153 = call i32 (i8*, ...) @printf(i8* getelementptr inbounds ([3 x i8], [3 x i8]* @.str.2, i64 0, i64 0), i32 %152)
  br label %154

154:                                              ; preds = %148, %141
  br label %155

155:                                              ; preds = %154
  %156 = load i32, i32* %4, align 4
  %157 = add nsw i32 %156, -1
  store i32 %157, i32* %4, align 4
  br label %132

158:                                              ; preds = %132
  %159 = load i32, i32* %1, align 4
  ret i32 %159
}

declare dso_local dereferenceable(280) %"class.std::basic_istream"* @_ZNSirsERi(%"class.std::basic_istream"*, i32* dereferenceable(4)) #1

declare dso_local dereferenceable(280) %"class.std::basic_istream"* @_ZStrsIcSt11char_traitsIcEERSt13basic_istreamIT_T0_ES6_PS3_(%"class.std::basic_istream"* dereferenceable(280), i8*) #1

; Function Attrs: nounwind readonly
declare dso_local i64 @strlen(i8*) #5

declare dso_local i32 @printf(i8*, ...) #1

; Function Attrs: noinline uwtable
define internal void @_GLOBAL__sub_I_1569.cpp() #0 section ".text.startup" {
  call void @__cxx_global_var_init()
  ret void
}


!llvm.module.flags = !{!0}
!llvm.ident = !{!1}

!0 = !{i32 1, !"wchar_size", i32 4}
!1 = !{!"clang version 10.0.0-4ubuntu1 "}
