; ModuleID = 'source-C-CXX/54/1569.cpp'
source_filename = "source-C-CXX/54/1569.cpp"
target datalayout = "e-m:e-p270:32:32-p271:32:32-p272:64:64-i64:64-f80:128-n8:16:32:64-S128"
target triple = "x86_64-pc-linux-gnu"

%"class.std::ios_base::Init" = type { i8 }
%"class.std::basic_istream" = type { i32 (...)**, i64, %"class.std::basic_ios" }
%"class.std::basic_ios" = type { %"class.std::ios_base", %"class.std::basic_ostream"*, i8, i8, %"class.std::basic_streambuf"*, %"class.std::ctype"*, %"class.std::num_put"*, %"class.std::num_get"* }
%"class.std::ios_base" = type { i32 (...)**, i64, i64, i32, i32, i32, %"struct.std::ios_base::_Callback_list"*, %"struct.std::ios_base::_Words", [8 x %"struct.std::ios_base::_Words"], i32, %"struct.std::ios_base::_Words"*, %"class.std::locale" }
%"struct.std::ios_base::_Callback_list" = type { %"struct.std::ios_base::_Callback_list"*, void (i32, %"class.std::ios_base"*, i32)*, i32, i32 }
%"struct.std::ios_base::_Words" = type { i8*, i64 }
%"class.std::locale" = type { %"class.std::locale::_Impl"* }
%"class.std::locale::_Impl" = type { i32, %"class.std::locale::facet"**, i64, %"class.std::locale::facet"**, i8** }
%"class.std::locale::facet" = type <{ i32 (...)**, i32, [4 x i8] }>
%"class.std::basic_ostream" = type { i32 (...)**, %"class.std::basic_ios" }
%"class.std::basic_streambuf" = type { i32 (...)**, i8*, i8*, i8*, i8*, i8*, i8*, %"class.std::locale" }
%"class.std::ctype" = type <{ %"class.std::locale::facet.base", [4 x i8], %struct.__locale_struct*, i8, [7 x i8], i32*, i32*, i16*, i8, [256 x i8], [256 x i8], i8, [6 x i8] }>
%"class.std::locale::facet.base" = type <{ i32 (...)**, i32 }>
%struct.__locale_struct = type { [13 x %struct.__locale_data*], i16*, i32*, i32*, [13 x i8*] }
%struct.__locale_data = type opaque
%"class.std::num_put" = type { %"class.std::locale::facet.base", [4 x i8] }
%"class.std::num_get" = type { %"class.std::locale::facet.base", [4 x i8] }

@_ZStL8__ioinit = internal global %"class.std::ios_base::Init" zeroinitializer, align 1
@__dso_handle = external hidden global i8
@_ZSt3cin = external global %"class.std::basic_istream", align 8
@.str.2 = private unnamed_addr constant [3 x i8] c"%d\00", align 1
@llvm.global_ctors = appending global [1 x { i32, void ()*, i8* }] [{ i32, void ()*, i8* } { i32 65535, void ()* @_GLOBAL__sub_I_1569.cpp, i8* null }]

declare void @_ZNSt8ios_base4InitC1Ev(%"class.std::ios_base::Init"* nonnull align 1 dereferenceable(1)) unnamed_addr #0

; Function Attrs: nounwind
declare void @_ZNSt8ios_base4InitD1Ev(%"class.std::ios_base::Init"* nonnull align 1 dereferenceable(1)) unnamed_addr #1

; Function Attrs: nofree nounwind
declare i32 @__cxa_atexit(void (i8*)*, i8*, i8*) local_unnamed_addr #2

; Function Attrs: mustprogress norecurse sspstrong uwtable
define dso_local i32 @main() local_unnamed_addr #3 {
  %1 = alloca i32, align 4
  %2 = alloca i32, align 4
  %3 = alloca [100 x i32], align 16
  %4 = alloca [100 x i8], align 16
  %5 = bitcast i32* %1 to i8*
  call void @llvm.lifetime.start.p0i8(i64 4, i8* nonnull %5) #8
  %6 = bitcast i32* %2 to i8*
  call void @llvm.lifetime.start.p0i8(i64 4, i8* nonnull %6) #8
  %7 = bitcast [100 x i32]* %3 to i8*
  call void @llvm.lifetime.start.p0i8(i64 400, i8* nonnull %7) #8
  %8 = getelementptr inbounds [100 x i8], [100 x i8]* %4, i64 0, i64 0
  call void @llvm.lifetime.start.p0i8(i64 100, i8* nonnull %8) #8
  %9 = call nonnull align 8 dereferenceable(16) %"class.std::basic_istream"* @_ZNSirsERi(%"class.std::basic_istream"* nonnull align 8 dereferenceable(16) @_ZSt3cin, i32* nonnull align 4 dereferenceable(4) %1)
  call void @_ZSt17__istream_extractRSiPcl(%"class.std::basic_istream"* nonnull align 8 dereferenceable(16) @_ZSt3cin, i8* nonnull %8, i64 100)
  %10 = call nonnull align 8 dereferenceable(16) %"class.std::basic_istream"* @_ZNSirsERi(%"class.std::basic_istream"* nonnull align 8 dereferenceable(16) @_ZSt3cin, i32* nonnull align 4 dereferenceable(4) %2)
  %11 = call i64 @strlen(i8* noundef nonnull %8) #9
  %12 = trunc i64 %11 to i32
  %13 = load i8, i8* %8, align 16, !tbaa !5
  %14 = icmp eq i8 %13, 48
  br i1 %14, label %15, label %17

15:                                               ; preds = %0
  %16 = call i32 @putchar(i32 48)
  br label %17

17:                                               ; preds = %15, %0
  %18 = load i32, i32* %1, align 4
  %19 = icmp sgt i32 %12, 0
  br i1 %19, label %20, label %84

20:                                               ; preds = %17
  %21 = and i64 %11, 4294967295
  br label %25

22:                                               ; preds = %48
  %23 = load i32, i32* %2, align 4
  %24 = icmp eq i32 %51, 0
  br i1 %24, label %84, label %60

25:                                               ; preds = %20, %48
  %26 = phi i64 [ %21, %20 ], [ %54, %48 ]
  %27 = phi i32 [ %12, %20 ], [ %30, %48 ]
  %28 = phi i32 [ 1, %20 ], [ %52, %48 ]
  %29 = phi i32 [ 0, %20 ], [ %51, %48 ]
  %30 = add nsw i32 %27, -1
  %31 = zext i32 %30 to i64
  %32 = getelementptr inbounds [100 x i8], [100 x i8]* %4, i64 0, i64 %31
  %33 = load i8, i8* %32, align 1, !tbaa !5
  %34 = add i8 %33, -97
  %35 = icmp ult i8 %34, 26
  %36 = add nsw i8 %33, -87
  %37 = select i1 %35, i8 %36, i8 %33
  %38 = add i8 %37, -65
  %39 = icmp ult i8 %38, 26
  %40 = add nsw i8 %37, -55
  %41 = select i1 %39, i8 %40, i8 %37
  %42 = or i1 %35, %39
  %43 = add i8 %41, -48
  %44 = icmp ult i8 %43, 10
  %45 = select i1 %44, i8 %43, i8 %41
  %46 = or i1 %42, %44
  br i1 %46, label %47, label %48

47:                                               ; preds = %25
  store i8 %45, i8* %32, align 1, !tbaa !5
  br label %48

48:                                               ; preds = %25, %47
  %49 = sext i8 %45 to i32
  %50 = mul nsw i32 %28, %49
  %51 = add nsw i32 %50, %29
  %52 = mul nsw i32 %18, %28
  %53 = icmp sgt i64 %26, 1
  %54 = add nsw i64 %26, -1
  br i1 %53, label %25, label %22, !llvm.loop !8

55:                                               ; preds = %60
  %56 = trunc i64 %66 to i32
  %57 = icmp sgt i32 %56, 0
  br i1 %57, label %58, label %84

58:                                               ; preds = %55
  %59 = and i64 %66, 4294967295
  br label %68

60:                                               ; preds = %22, %60
  %61 = phi i64 [ %66, %60 ], [ 0, %22 ]
  %62 = phi i32 [ %65, %60 ], [ %51, %22 ]
  %63 = srem i32 %62, %23
  %64 = getelementptr inbounds [100 x i32], [100 x i32]* %3, i64 0, i64 %61
  store i32 %63, i32* %64, align 4, !tbaa !10
  %65 = sdiv i32 %62, %23
  %66 = add nuw i64 %61, 1
  %67 = icmp eq i32 %65, 0
  br i1 %67, label %55, label %60, !llvm.loop !12

68:                                               ; preds = %58, %81
  %69 = phi i64 [ %59, %58 ], [ %83, %81 ]
  %70 = phi i32 [ %56, %58 ], [ %71, %81 ]
  %71 = add nsw i32 %70, -1
  %72 = zext i32 %71 to i64
  %73 = getelementptr inbounds [100 x i32], [100 x i32]* %3, i64 0, i64 %72
  %74 = load i32, i32* %73, align 4, !tbaa !10
  %75 = icmp sgt i32 %74, 9
  br i1 %75, label %76, label %79

76:                                               ; preds = %68
  %77 = add nuw nsw i32 %74, 55
  %78 = call i32 @putchar(i32 %77)
  br label %81

79:                                               ; preds = %68
  %80 = call i32 (i8*, ...) @printf(i8* nonnull dereferenceable(1) getelementptr inbounds ([3 x i8], [3 x i8]* @.str.2, i64 0, i64 0), i32 %74)
  br label %81

81:                                               ; preds = %76, %79
  %82 = icmp sgt i64 %69, 1
  %83 = add nsw i64 %69, -1
  br i1 %82, label %68, label %84, !llvm.loop !13

84:                                               ; preds = %81, %17, %22, %55
  call void @llvm.lifetime.end.p0i8(i64 100, i8* nonnull %8) #8
  call void @llvm.lifetime.end.p0i8(i64 400, i8* nonnull %7) #8
  call void @llvm.lifetime.end.p0i8(i64 4, i8* nonnull %6) #8
  call void @llvm.lifetime.end.p0i8(i64 4, i8* nonnull %5) #8
  ret i32 0
}

; Function Attrs: argmemonly mustprogress nofree nosync nounwind willreturn
declare void @llvm.lifetime.start.p0i8(i64 immarg, i8* nocapture) #4

declare nonnull align 8 dereferenceable(16) %"class.std::basic_istream"* @_ZNSirsERi(%"class.std::basic_istream"* nonnull align 8 dereferenceable(16), i32* nonnull align 4 dereferenceable(4)) local_unnamed_addr #0

; Function Attrs: argmemonly mustprogress nofree nounwind readonly willreturn
declare i64 @strlen(i8* nocapture) local_unnamed_addr #5

; Function Attrs: nofree nounwind
declare noundef i32 @printf(i8* nocapture noundef readonly, ...) local_unnamed_addr #6

; Function Attrs: argmemonly mustprogress nofree nosync nounwind willreturn
declare void @llvm.lifetime.end.p0i8(i64 immarg, i8* nocapture) #4

declare void @_ZSt17__istream_extractRSiPcl(%"class.std::basic_istream"* nonnull align 8 dereferenceable(16), i8*, i64) local_unnamed_addr #0

; Function Attrs: sspstrong uwtable
define internal void @_GLOBAL__sub_I_1569.cpp() #7 section ".text.startup" {
  tail call void @_ZNSt8ios_base4InitC1Ev(%"class.std::ios_base::Init"* nonnull align 1 dereferenceable(1) @_ZStL8__ioinit)
  %1 = tail call i32 @__cxa_atexit(void (i8*)* bitcast (void (%"class.std::ios_base::Init"*)* @_ZNSt8ios_base4InitD1Ev to void (i8*)*), i8* getelementptr inbounds (%"class.std::ios_base::Init", %"class.std::ios_base::Init"* @_ZStL8__ioinit, i64 0, i32 0), i8* nonnull @__dso_handle) #8
  ret void
}

; Function Attrs: nofree nounwind
declare noundef i32 @putchar(i32 noundef) local_unnamed_addr #2


!llvm.module.flags = !{!0, !1, !2, !3}
!llvm.ident = !{!4}

!0 = !{i32 1, !"wchar_size", i32 4}
!1 = !{i32 7, !"PIC Level", i32 2}
!2 = !{i32 7, !"PIE Level", i32 2}
!3 = !{i32 7, !"uwtable", i32 1}
!4 = !{!"clang version 13.0.0"}
!5 = !{!6, !6, i64 0}
!6 = !{!"omnipotent char", !7, i64 0}
!7 = !{!"Simple C++ TBAA"}
!8 = distinct !{!8, !9}
!9 = !{!"llvm.loop.mustprogress"}
!10 = !{!11, !11, i64 0}
!11 = !{!"int", !6, i64 0}
!12 = distinct !{!12, !9}
!13 = distinct !{!13, !9}
